; ModuleID = 'source-C-CXX/25/608.c'
source_filename = "source-C-CXX/25/608.c"
target datalayout = "e-m:e-p270:32:32-p271:32:32-p272:64:64-i64:64-f80:128-n8:16:32:64-S128"
target triple = "x86_64-pc-linux-gnu"

; Function Attrs: nounwind sspstrong uwtable
define dso_local i32 @main() local_unnamed_addr #0 {
  %1 = alloca [100 x i8], align 16
  %2 = getelementptr inbounds [100 x i8], [100 x i8]* %1, i64 0, i64 0
  call void @llvm.lifetime.start.p0i8(i64 100, i8* nonnull %2) #4
  %3 = call i32 (i8*, ...) bitcast (i32 (...)* @gets to i32 (i8*, ...)*)(i8* nonnull %2) #4
  br label %4

4:                                                ; preds = %15, %0
  %5 = phi i64 [ 0, %0 ], [ %16, %15 ]
  %6 = getelementptr inbounds [100 x i8], [100 x i8]* %1, i64 0, i64 %5
  %7 = load i8, i8* %6, align 1, !tbaa !5
  switch i8 %7, label %8 [
    i8 0, label %26
    i8 32, label %10
  ]

8:                                                ; preds = %4
  %9 = add nuw i64 %5, 1
  br label %21

10:                                               ; preds = %4
  %11 = add nuw i64 %5, 1
  %12 = getelementptr inbounds [100 x i8], [100 x i8]* %1, i64 0, i64 %11
  %13 = load i8, i8* %12, align 1, !tbaa !5
  %14 = icmp eq i8 %13, 32
  br i1 %14, label %15, label %17

15:                                               ; preds = %10, %21, %17
  %16 = phi i64 [ %22, %21 ], [ %11, %17 ], [ %11, %10 ]
  br label %4, !llvm.loop !8

17:                                               ; preds = %10
  %18 = call i32 @putchar(i32 32)
  %19 = load i8, i8* %6, align 1, !tbaa !5
  %20 = icmp eq i8 %19, 32
  br i1 %20, label %15, label %21

21:                                               ; preds = %8, %17
  %22 = phi i64 [ %9, %8 ], [ %11, %17 ]
  %23 = phi i8 [ %7, %8 ], [ %19, %17 ]
  %24 = sext i8 %23 to i32
  %25 = call i32 @putchar(i32 %24)
  br label %15

26:                                               ; preds = %4
  call void @llvm.lifetime.end.p0i8(i64 100, i8* nonnull %2) #4
  ret i32 0
}

; Function Attrs: argmemonly mustprogress nofree nosync nounwind willreturn
declare void @llvm.lifetime.start.p0i8(i64 immarg, i8* nocapture) #1

declare i32 @gets(...) local_unnamed_addr #2

; Function Attrs: argmemonly mustprogress nofree nosync nounwind willreturn
declare void @llvm.lifetime.end.p0i8(i64 immarg, i8* nocapture) #1

; Function Attrs: nofree nounwind
declare noundef i32 @putchar(i32 noundef) local_unnamed_addr #3


!llvm.module.flags = !{!0, !1, !2, !3}
!llvm.ident = !{!4}

!0 = !{i32 1, !"wchar_size", i32 4}
!1 = !{i32 7, !"PIC Level", i32 2}
!2 = !{i32 7, !"PIE Level", i32 2}
!3 = !{i32 7, !"uwtable", i32 1}
!4 = !{!"clang version 13.0.0"}
!5 = !{!6, !6, i64 0}
!6 = !{!"omnipotent char", !7, i64 0}
!7 = !{!"Simple C/C++ TBAA"}
!8 = distinct !{!8, !9}
!9 = !{!"llvm.loop.mustprogress"}
